target datalayout = "e-m:e-p270:32:32-p271:32:32-p272:64:64-i64:64-i128:128-f80:128-n8:16:32:64-S128"
target triple = "x86_64-pc-linux-gnu"

%struct.Aig_Man_t_ = type { ptr, ptr, ptr, ptr, ptr, ptr, ptr, %struct.Aig_Obj_t_, i32, i32, i32, i32, i32, i32, [7 x i32], i32, ptr, i32, ptr, i32, ptr, i32, i32, i32, ptr, i32, i32, i32, i32, i32, ptr, ptr, i32, ptr, ptr, i32, ptr, ptr, i32, i32, i32, ptr, ptr, ptr, ptr, ptr, ptr, ptr, ptr, ptr, ptr, ptr, ptr, ptr, ptr, i32, ptr, ptr, ptr, ptr, i32, i64, i64, i64, ptr, ptr }
%struct.Aig_Obj_t_ = type { %union.anon, ptr, ptr, i64, i32, i32, %union.anon.0 }
%union.anon = type { ptr }
%union.anon.0 = type { ptr }
%struct.Vec_Ptr_t_ = type { i32, i32, ptr }

; Function Attrs: inlinehint nounwind uwtable
define internal i32 @Aig_IsComplement(ptr noundef %0) #3 {
  %2 = alloca ptr, align 8
  store ptr %0, ptr %2, align 8, !tbaa !28
  %3 = load ptr, ptr %2, align 8, !tbaa !28
  %4 = ptrtoint ptr %3 to i64
  %5 = and i64 %4, 1
  %6 = trunc i64 %5 to i32
  ret i32 %6
}

; Function Attrs: inlinehint nounwind uwtable
define internal ptr @Aig_Regular(ptr noundef %0) #3 {
  %2 = alloca ptr, align 8
  store ptr %0, ptr %2, align 8, !tbaa !28
  %3 = load ptr, ptr %2, align 8, !tbaa !28
  %4 = ptrtoint ptr %3 to i64
  %5 = and i64 %4, -2
  %6 = inttoptr i64 %5 to ptr
  ret ptr %6
}

; Function Attrs: inlinehint nounwind uwtable
define internal i32 @Aig_ObjFaninC1(ptr noundef %0) #3 {
  %2 = alloca ptr, align 8
  store ptr %0, ptr %2, align 8, !tbaa !28
  %3 = load ptr, ptr %2, align 8, !tbaa !28
  %4 = getelementptr inbounds nuw %struct.Aig_Obj_t_, ptr %3, i32 0, i32 2
  %5 = load ptr, ptr %4, align 8, !tbaa !64
  %6 = call i32 @Aig_IsComplement(ptr noundef %5)
  ret i32 %6
}

; Function Attrs: inlinehint nounwind uwtable
define internal ptr @Aig_ObjFanin1(ptr noundef %0) #3 {
  %2 = alloca ptr, align 8
  store ptr %0, ptr %2, align 8, !tbaa !28
  %3 = load ptr, ptr %2, align 8, !tbaa !28
  %4 = getelementptr inbounds nuw %struct.Aig_Obj_t_, ptr %3, i32 0, i32 2
  %5 = load ptr, ptr %4, align 8, !tbaa !64
  %6 = call ptr @Aig_Regular(ptr noundef %5)
  ret ptr %6
}

; Function Attrs: inlinehint nounwind uwtable
define internal i32 @Aig_ObjFaninC0(ptr noundef %0) #3 {
  %2 = alloca ptr, align 8
  store ptr %0, ptr %2, align 8, !tbaa !28
  %3 = load ptr, ptr %2, align 8, !tbaa !28
  %4 = getelementptr inbounds nuw %struct.Aig_Obj_t_, ptr %3, i32 0, i32 1
  %5 = load ptr, ptr %4, align 8, !tbaa !40
  %6 = call i32 @Aig_IsComplement(ptr noundef %5)
  ret i32 %6
}

; Function Attrs: inlinehint nounwind uwtable
define internal ptr @Aig_ObjFanin0(ptr noundef %0) #3 {
  %2 = alloca ptr, align 8
  store ptr %0, ptr %2, align 8, !tbaa !28
  %3 = load ptr, ptr %2, align 8, !tbaa !28
  %4 = getelementptr inbounds nuw %struct.Aig_Obj_t_, ptr %3, i32 0, i32 1
  %5 = load ptr, ptr %4, align 8, !tbaa !40
  %6 = call ptr @Aig_Regular(ptr noundef %5)
  ret ptr %6
}

; Function Attrs: inlinehint nounwind uwtable
define internal i32 @Aig_ObjIsNode(ptr noundef %0) #3 {
  %2 = alloca ptr, align 8
  store ptr %0, ptr %2, align 8, !tbaa !28
  %3 = load ptr, ptr %2, align 8, !tbaa !28
  %4 = getelementptr inbounds nuw %struct.Aig_Obj_t_, ptr %3, i32 0, i32 3
  %5 = load i64, ptr %4, align 8
  %6 = and i64 %5, 7
  %7 = trunc i64 %6 to i32
  %8 = icmp eq i32 %7, 5
  br i1 %8, label %16, label %9

9:                                                ; preds = %1
  %10 = load ptr, ptr %2, align 8, !tbaa !28
  %11 = getelementptr inbounds nuw %struct.Aig_Obj_t_, ptr %10, i32 0, i32 3
  %12 = load i64, ptr %11, align 8
  %13 = and i64 %12, 7
  %14 = trunc i64 %13 to i32
  %15 = icmp eq i32 %14, 6
  br label %16

16:                                               ; preds = %9, %1
  %17 = phi i1 [ true, %1 ], [ %15, %9 ]
  %18 = zext i1 %17 to i32
  ret i32 %18
}

; Function Attrs: inlinehint nounwind uwtable
define internal ptr @Vec_PtrEntry(ptr noundef %0, i32 noundef %1) #3 {
  %3 = alloca ptr, align 8
  %4 = alloca i32, align 4
  store ptr %0, ptr %3, align 8, !tbaa !36
  store i32 %1, ptr %4, align 4, !tbaa !14
  %5 = load ptr, ptr %3, align 8, !tbaa !36
  %6 = getelementptr inbounds nuw %struct.Vec_Ptr_t_, ptr %5, i32 0, i32 2
  %7 = load ptr, ptr %6, align 8, !tbaa !37
  %8 = load i32, ptr %4, align 4, !tbaa !14
  %9 = sext i32 %8 to i64
  %10 = getelementptr inbounds ptr, ptr %7, i64 %9
  %11 = load ptr, ptr %10, align 8, !tbaa !39
  ret ptr %11
}

; Function Attrs: inlinehint nounwind uwtable
define internal i32 @Vec_PtrSize(ptr noundef %0) #3 {
  %2 = alloca ptr, align 8
  store ptr %0, ptr %2, align 8, !tbaa !36
  %3 = load ptr, ptr %2, align 8, !tbaa !36
  %4 = getelementptr inbounds nuw %struct.Vec_Ptr_t_, ptr %3, i32 0, i32 1
  %5 = load i32, ptr %4, align 4, !tbaa !57
  ret i32 %5
}

; Function Attrs: inlinehint nounwind uwtable
define internal ptr @Aig_ManConst1(ptr noundef %0) #3 {
  %2 = alloca ptr, align 8
  store ptr %0, ptr %2, align 8, !tbaa !3
  %3 = load ptr, ptr %2, align 8, !tbaa !3
  %4 = getelementptr inbounds nuw %struct.Aig_Man_t_, ptr %3, i32 0, i32 6
  %5 = load ptr, ptr %4, align 8, !tbaa !41
  ret ptr %5
}

; Function Attrs: nounwind uwtable
define i32 @Ssw_SecCexResimulate(ptr noundef %0, ptr noundef %1, ptr noundef %2) #0 {
  %4 = alloca ptr, align 8
  %5 = alloca ptr, align 8
  %6 = alloca ptr, align 8
  %7 = alloca ptr, align 8
  %8 = alloca i32, align 4
  %9 = alloca i32, align 4
  store ptr %0, ptr %4, align 8, !tbaa !3
  store ptr %1, ptr %5, align 8, !tbaa !110
  store ptr %2, ptr %6, align 8, !tbaa !110
  call void @llvm.lifetime.start.p0(i64 8, ptr %7) #10
  call void @llvm.lifetime.start.p0(i64 4, ptr %8) #10
  call void @llvm.lifetime.start.p0(i64 4, ptr %9) #10
  store i32 -1, ptr %9, align 4, !tbaa !14
  %10 = load ptr, ptr %6, align 8, !tbaa !110
  store i32 0, ptr %10, align 4, !tbaa !14
  %11 = load ptr, ptr %4, align 8, !tbaa !3
  %12 = call ptr @Aig_ManConst1(ptr noundef %11)
  %13 = getelementptr inbounds nuw %struct.Aig_Obj_t_, ptr %12, i32 0, i32 3
  %14 = load i64, ptr %13, align 8
  %15 = and i64 %14, -17
  %16 = or i64 %15, 16
  store i64 %16, ptr %13, align 8
  store i32 0, ptr %8, align 4, !tbaa !14
  br label %17

17:                                               ; preds = %46, %3
  %18 = load i32, ptr %8, align 4, !tbaa !14
  %19 = load ptr, ptr %4, align 8, !tbaa !3
  %20 = getelementptr inbounds nuw %struct.Aig_Man_t_, ptr %19, i32 0, i32 2
  %21 = load ptr, ptr %20, align 8, !tbaa !44
  %22 = call i32 @Vec_PtrSize(ptr noundef %21)
  %23 = icmp slt i32 %18, %22
  br i1 %23, label %24, label %30

24:                                               ; preds = %17
  %25 = load ptr, ptr %4, align 8, !tbaa !3
  %26 = getelementptr inbounds nuw %struct.Aig_Man_t_, ptr %25, i32 0, i32 2
  %27 = load ptr, ptr %26, align 8, !tbaa !44
  %28 = load i32, ptr %8, align 4, !tbaa !14
  %29 = call ptr @Vec_PtrEntry(ptr noundef %27, i32 noundef %28)
  store ptr %29, ptr %7, align 8, !tbaa !28
  br label %30

30:                                               ; preds = %24, %17
  %31 = phi i1 [ false, %17 ], [ true, %24 ]
  br i1 %31, label %32, label %49

32:                                               ; preds = %30
  %33 = load ptr, ptr %5, align 8, !tbaa !110
  %34 = load i32, ptr %8, align 4, !tbaa !14
  %35 = sext i32 %34 to i64
  %36 = getelementptr inbounds i32, ptr %33, i64 %35
  %37 = load i32, ptr %36, align 4, !tbaa !14
  %38 = load ptr, ptr %7, align 8, !tbaa !28
  %39 = getelementptr inbounds nuw %struct.Aig_Obj_t_, ptr %38, i32 0, i32 3
  %40 = zext i32 %37 to i64
  %41 = load i64, ptr %39, align 8
  %42 = and i64 %40, 1
  %43 = shl i64 %42, 4
  %44 = and i64 %41, -17
  %45 = or i64 %44, %43
  store i64 %45, ptr %39, align 8
  br label %46

46:                                               ; preds = %32
  %47 = load i32, ptr %8, align 4, !tbaa !14
  %48 = add nsw i32 %47, 1
  store i32 %48, ptr %8, align 4, !tbaa !14
  br label %17, !llvm.loop !111

49:                                               ; preds = %30
  store i32 0, ptr %8, align 4, !tbaa !14
  br label %50

50:                                               ; preds = %104, %49
  %51 = load i32, ptr %8, align 4, !tbaa !14
  %52 = load ptr, ptr %4, align 8, !tbaa !3
  %53 = getelementptr inbounds nuw %struct.Aig_Man_t_, ptr %52, i32 0, i32 4
  %54 = load ptr, ptr %53, align 8, !tbaa !49
  %55 = call i32 @Vec_PtrSize(ptr noundef %54)
  %56 = icmp slt i32 %51, %55
  br i1 %56, label %57, label %63

57:                                               ; preds = %50
  %58 = load ptr, ptr %4, align 8, !tbaa !3
  %59 = getelementptr inbounds nuw %struct.Aig_Man_t_, ptr %58, i32 0, i32 4
  %60 = load ptr, ptr %59, align 8, !tbaa !49
  %61 = load i32, ptr %8, align 4, !tbaa !14
  %62 = call ptr @Vec_PtrEntry(ptr noundef %60, i32 noundef %61)
  store ptr %62, ptr %7, align 8, !tbaa !28
  br label %63

63:                                               ; preds = %57, %50
  %64 = phi i1 [ false, %50 ], [ true, %57 ]
  br i1 %64, label %65, label %107

65:                                               ; preds = %63
  %66 = load ptr, ptr %7, align 8, !tbaa !28
  %67 = icmp eq ptr %66, null
  br i1 %67, label %72, label %68

68:                                               ; preds = %65
  %69 = load ptr, ptr %7, align 8, !tbaa !28
  %70 = call i32 @Aig_ObjIsNode(ptr noundef %69)
  %71 = icmp ne i32 %70, 0
  br i1 %71, label %73, label %72

72:                                               ; preds = %68, %65
  br label %103

73:                                               ; preds = %68
  %74 = load ptr, ptr %7, align 8, !tbaa !28
  %75 = call ptr @Aig_ObjFanin0(ptr noundef %74)
  %76 = getelementptr inbounds nuw %struct.Aig_Obj_t_, ptr %75, i32 0, i32 3
  %77 = load i64, ptr %76, align 8
  %78 = lshr i64 %77, 4
  %79 = and i64 %78, 1
  %80 = trunc i64 %79 to i32
  %81 = load ptr, ptr %7, align 8, !tbaa !28
  %82 = call i32 @Aig_ObjFaninC0(ptr noundef %81)
  %83 = xor i32 %80, %82
  %84 = load ptr, ptr %7, align 8, !tbaa !28
  %85 = call ptr @Aig_ObjFanin1(ptr noundef %84)
  %86 = getelementptr inbounds nuw %struct.Aig_Obj_t_, ptr %85, i32 0, i32 3
  %87 = load i64, ptr %86, align 8
  %88 = lshr i64 %87, 4
  %89 = and i64 %88, 1
  %90 = trunc i64 %89 to i32
  %91 = load ptr, ptr %7, align 8, !tbaa !28
  %92 = call i32 @Aig_ObjFaninC1(ptr noundef %91)
  %93 = xor i32 %90, %92
  %94 = and i32 %83, %93
  %95 = load ptr, ptr %7, align 8, !tbaa !28
  %96 = getelementptr inbounds nuw %struct.Aig_Obj_t_, ptr %95, i32 0, i32 3
  %97 = zext i32 %94 to i64
  %98 = load i64, ptr %96, align 8
  %99 = and i64 %97, 1
  %100 = shl i64 %99, 4
  %101 = and i64 %98, -17
  %102 = or i64 %101, %100
  store i64 %102, ptr %96, align 8
  br label %103

103:                                              ; preds = %73, %72
  br label %104

104:                                              ; preds = %103
  %105 = load i32, ptr %8, align 4, !tbaa !14
  %106 = add nsw i32 %105, 1
  store i32 %106, ptr %8, align 4, !tbaa !14
  br label %50, !llvm.loop !112

107:                                              ; preds = %63
  store i32 0, ptr %8, align 4, !tbaa !14
  br label %108

108:                                              ; preds = %142, %107
  %109 = load i32, ptr %8, align 4, !tbaa !14
  %110 = load ptr, ptr %4, align 8, !tbaa !3
  %111 = getelementptr inbounds nuw %struct.Aig_Man_t_, ptr %110, i32 0, i32 3
  %112 = load ptr, ptr %111, align 8, !tbaa !15
  %113 = call i32 @Vec_PtrSize(ptr noundef %112)
  %114 = icmp slt i32 %109, %113
  br i1 %114, label %115, label %121

115:                                              ; preds = %108
  %116 = load ptr, ptr %4, align 8, !tbaa !3
  %117 = getelementptr inbounds nuw %struct.Aig_Man_t_, ptr %116, i32 0, i32 3
  %118 = load ptr, ptr %117, align 8, !tbaa !15
  %119 = load i32, ptr %8, align 4, !tbaa !14
  %120 = call ptr @Vec_PtrEntry(ptr noundef %118, i32 noundef %119)
  store ptr %120, ptr %7, align 8, !tbaa !28
  br label %121

121:                                              ; preds = %115, %108
  %122 = phi i1 [ false, %108 ], [ true, %115 ]
  br i1 %122, label %123, label %145

123:                                              ; preds = %121
  %124 = load ptr, ptr %7, align 8, !tbaa !28
  %125 = call ptr @Aig_ObjFanin0(ptr noundef %124)
  %126 = getelementptr inbounds nuw %struct.Aig_Obj_t_, ptr %125, i32 0, i32 3
  %127 = load i64, ptr %126, align 8
  %128 = lshr i64 %127, 4
  %129 = and i64 %128, 1
  %130 = trunc i64 %129 to i32
  %131 = load ptr, ptr %7, align 8, !tbaa !28
  %132 = call i32 @Aig_ObjFaninC0(ptr noundef %131)
  %133 = xor i32 %130, %132
  %134 = load ptr, ptr %7, align 8, !tbaa !28
  %135 = getelementptr inbounds nuw %struct.Aig_Obj_t_, ptr %134, i32 0, i32 3
  %136 = zext i32 %133 to i64
  %137 = load i64, ptr %135, align 8
  %138 = and i64 %136, 1
  %139 = shl i64 %138, 4
  %140 = and i64 %137, -17
  %141 = or i64 %140, %139
  store i64 %141, ptr %135, align 8
  br label %142

142:                                              ; preds = %123
  %143 = load i32, ptr %8, align 4, !tbaa !14
  %144 = add nsw i32 %143, 1
  store i32 %144, ptr %8, align 4, !tbaa !14
  br label %108, !llvm.loop !113

145:                                              ; preds = %121
  store i32 0, ptr %8, align 4, !tbaa !14
  br label %146

146:                                              ; preds = %179, %145
  %147 = load i32, ptr %8, align 4, !tbaa !14
  %148 = load ptr, ptr %4, align 8, !tbaa !3
  %149 = getelementptr inbounds nuw %struct.Aig_Man_t_, ptr %148, i32 0, i32 3
  %150 = load ptr, ptr %149, align 8, !tbaa !15
  %151 = call i32 @Vec_PtrSize(ptr noundef %150)
  %152 = icmp slt i32 %147, %151
  br i1 %152, label %153, label %159

153:                                              ; preds = %146
  %154 = load ptr, ptr %4, align 8, !tbaa !3
  %155 = getelementptr inbounds nuw %struct.Aig_Man_t_, ptr %154, i32 0, i32 3
  %156 = load ptr, ptr %155, align 8, !tbaa !15
  %157 = load i32, ptr %8, align 4, !tbaa !14
  %158 = call ptr @Vec_PtrEntry(ptr noundef %156, i32 noundef %157)
  store ptr %158, ptr %7, align 8, !tbaa !28
  br label %159

159:                                              ; preds = %153, %146
  %160 = phi i1 [ false, %146 ], [ true, %153 ]
  br i1 %160, label %161, label %182

161:                                              ; preds = %159
  %162 = load ptr, ptr %7, align 8, !tbaa !28
  %163 = getelementptr inbounds nuw %struct.Aig_Obj_t_, ptr %162, i32 0, i32 3
  %164 = load i64, ptr %163, align 8
  %165 = lshr i64 %164, 4
  %166 = and i64 %165, 1
  %167 = trunc i64 %166 to i32
  %168 = icmp ne i32 %167, 0
  br i1 %168, label %169, label %178

169:                                              ; preds = %161
  %170 = load i32, ptr %9, align 4, !tbaa !14
  %171 = icmp eq i32 %170, -1
  br i1 %171, label %172, label %174

172:                                              ; preds = %169
  %173 = load i32, ptr %8, align 4, !tbaa !14
  store i32 %173, ptr %9, align 4, !tbaa !14
  br label %174

174:                                              ; preds = %172, %169
  %175 = load ptr, ptr %6, align 8, !tbaa !110
  %176 = load i32, ptr %175, align 4, !tbaa !14
  %177 = add nsw i32 %176, 1
  store i32 %177, ptr %175, align 4, !tbaa !14
  br label %178

178:                                              ; preds = %174, %161
  br label %179

179:                                              ; preds = %178
  %180 = load i32, ptr %8, align 4, !tbaa !14
  %181 = add nsw i32 %180, 1
  store i32 %181, ptr %8, align 4, !tbaa !14
  br label %146, !llvm.loop !114

182:                                              ; preds = %159
  %183 = load ptr, ptr %4, align 8, !tbaa !3
  call void @Aig_ManCleanMarkA(ptr noundef %183)
  %184 = load i32, ptr %9, align 4, !tbaa !14
  call void @llvm.lifetime.end.p0(i64 4, ptr %9) #10
  call void @llvm.lifetime.end.p0(i64 4, ptr %8) #10
  call void @llvm.lifetime.end.p0(i64 8, ptr %7) #10
  ret i32 %184
}