; Function Attrs: nounwind uwtable
define i32 @Ssw_SecCexResimulate(ptr noundef %0, ptr noundef readonly captures(none) %1, ptr noundef captures(none) initializes((0, 4)) %2) local_unnamed_addr #3 {
  store i32 0, ptr %2, align 4, !tbaa !23
  %4 = getelementptr i8, ptr %0, i64 48
  %.val54 = load ptr, ptr %4, align 8, !tbaa !30
  %5 = getelementptr inbounds nuw i8, ptr %.val54, i64 24
  %6 = load i64, ptr %5, align 8
  %7 = or i64 %6, 16
  store i64 %7, ptr %5, align 8
  %8 = getelementptr inbounds nuw i8, ptr %0, i64 16
  %9 = load ptr, ptr %8, align 8, !tbaa !39
  %10 = getelementptr i8, ptr %9, i64 4
  %.val5868 = load i32, ptr %10, align 4, !tbaa !37
  %11 = icmp sgt i32 %.val5868, 0
  br i1 %11, label %.lr.ph, label %.critedge.preheader

.critedge.preheader:                              ; preds = %.lr.ph, %3
  %12 = getelementptr inbounds nuw i8, ptr %0, i64 32
  %13 = load ptr, ptr %12, align 8, !tbaa !36
  %14 = getelementptr i8, ptr %13, i64 4
  %.val5770 = load i32, ptr %14, align 4, !tbaa !37
  %15 = icmp sgt i32 %.val5770, 0
  br i1 %15, label %.lr.ph72, label %.critedge2.preheader

.lr.ph:                                           ; preds = %3, %.lr.ph
  %indvars.iv = phi i64 [ %indvars.iv.next, %.lr.ph ], [ 0, %3 ]
  %16 = phi ptr [ %29, %.lr.ph ], [ %9, %3 ]
  %17 = getelementptr i8, ptr %16, i64 8
  %.val53 = load ptr, ptr %17, align 8, !tbaa !28
  %18 = getelementptr inbounds nuw ptr, ptr %.val53, i64 %indvars.iv
  %19 = load ptr, ptr %18, align 8, !tbaa !31
  %20 = getelementptr inbounds nuw i32, ptr %1, i64 %indvars.iv
  %21 = load i32, ptr %20, align 4, !tbaa !23
  %22 = getelementptr inbounds nuw i8, ptr %19, i64 24
  %23 = load i64, ptr %22, align 8
  %24 = shl i32 %21, 4
  %25 = and i32 %24, 16
  %26 = zext nneg i32 %25 to i64
  %27 = and i64 %23, -17
  %28 = or disjoint i64 %27, %26
  store i64 %28, ptr %22, align 8
  %indvars.iv.next = add nuw nsw i64 %indvars.iv, 1
  %29 = load ptr, ptr %8, align 8, !tbaa !39
  %30 = getelementptr i8, ptr %29, i64 4
  %.val58 = load i32, ptr %30, align 4, !tbaa !37
  %31 = sext i32 %.val58 to i64
  %32 = icmp slt i64 %indvars.iv.next, %31
  br i1 %32, label %.lr.ph, label %.critedge.preheader, !llvm.loop !100

.critedge2.preheader:                             ; preds = %.critedge, %.critedge.preheader
  %33 = getelementptr inbounds nuw i8, ptr %0, i64 24
  %34 = load ptr, ptr %33, align 8, !tbaa !27
  %35 = getelementptr i8, ptr %34, i64 4
  %.val5674 = load i32, ptr %35, align 4, !tbaa !37
  %36 = icmp sgt i32 %.val5674, 0
  br i1 %36, label %.critedge2, label %.critedge6

.lr.ph72:                                         ; preds = %.critedge.preheader, %.critedge
  %37 = phi ptr [ %75, %.critedge ], [ %13, %.critedge.preheader ]
  %indvars.iv85 = phi i64 [ %indvars.iv.next86, %.critedge ], [ 0, %.critedge.preheader ]
  %38 = getelementptr i8, ptr %37, i64 8
  %.val52 = load ptr, ptr %38, align 8, !tbaa !28
  %39 = getelementptr inbounds nuw ptr, ptr %.val52, i64 %indvars.iv85
  %40 = load ptr, ptr %39, align 8, !tbaa !31
  %41 = icmp eq ptr %40, null
  br i1 %41, label %.critedge, label %42

42:                                               ; preds = %.lr.ph72
  %43 = getelementptr i8, ptr %40, i64 24
  %.val59 = load i64, ptr %43, align 8
  %44 = trunc i64 %.val59 to i32
  %45 = and i32 %44, 7
  %46 = add nsw i32 %45, -7
  %narrow.i = icmp ult i32 %46, -2
  br i1 %narrow.i, label %.critedge, label %47

47:                                               ; preds = %42
  %48 = getelementptr i8, ptr %40, i64 8
  %.val61 = load ptr, ptr %48, align 8, !tbaa !32
  %49 = ptrtoint ptr %.val61 to i64
  %50 = and i64 %49, -2
  %51 = inttoptr i64 %50 to ptr
  %52 = getelementptr inbounds nuw i8, ptr %51, i64 24
  %53 = load i64, ptr %52, align 8
  %54 = trunc i64 %53 to i32
  %55 = lshr i32 %54, 4
  %56 = trunc i64 %49 to i32
  %57 = xor i32 %55, %56
  %58 = getelementptr i8, ptr %40, i64 16
  %.val64 = load ptr, ptr %58, align 8, !tbaa !45
  %59 = ptrtoint ptr %.val64 to i64
  %60 = and i64 %59, -2
  %61 = inttoptr i64 %60 to ptr
  %62 = getelementptr inbounds nuw i8, ptr %61, i64 24
  %63 = load i64, ptr %62, align 8
  %64 = trunc i64 %63 to i32
  %65 = lshr i32 %64, 4
  %66 = trunc i64 %59 to i32
  %67 = and i32 %66, 1
  %68 = xor i32 %65, %67
  %69 = and i32 %68, %57
  %70 = shl nuw i32 %69, 4
  %71 = and i32 %70, 16
  %72 = zext nneg i32 %71 to i64
  %73 = and i64 %.val59, -17
  %74 = or disjoint i64 %73, %72
  store i64 %74, ptr %43, align 8
  %.pre = load ptr, ptr %12, align 8, !tbaa !36
  br label %.critedge

.critedge:                                        ; preds = %47, %42, %.lr.ph72
  %75 = phi ptr [ %.pre, %47 ], [ %37, %42 ], [ %37, %.lr.ph72 ]
  %indvars.iv.next86 = add nuw nsw i64 %indvars.iv85, 1
  %76 = getelementptr i8, ptr %75, i64 4
  %.val57 = load i32, ptr %76, align 4, !tbaa !37
  %77 = sext i32 %.val57 to i64
  %78 = icmp slt i64 %indvars.iv.next86, %77
  br i1 %78, label %.lr.ph72, label %.critedge2.preheader, !llvm.loop !101

.critedge4.preheader:                             ; preds = %.critedge2
  %79 = getelementptr i8, ptr %98, i64 4
  %80 = icmp sgt i32 %.val56, 0
  br i1 %80, label %.lr.ph81, label %.critedge6

.lr.ph81:                                         ; preds = %.critedge4.preheader
  %81 = getelementptr i8, ptr %98, i64 8
  %.val = load ptr, ptr %81, align 8, !tbaa !28
  br label %102

.critedge2:                                       ; preds = %.critedge2.preheader, %.critedge2
  %indvars.iv88 = phi i64 [ %indvars.iv.next89, %.critedge2 ], [ 0, %.critedge2.preheader ]
  %82 = phi ptr [ %98, %.critedge2 ], [ %34, %.critedge2.preheader ]
  %83 = getelementptr i8, ptr %82, i64 8
  %.val51 = load ptr, ptr %83, align 8, !tbaa !28
  %84 = getelementptr inbounds nuw ptr, ptr %.val51, i64 %indvars.iv88
  %85 = load ptr, ptr %84, align 8, !tbaa !31
  %86 = getelementptr i8, ptr %85, i64 8
  %.val60 = load ptr, ptr %86, align 8, !tbaa !32
  %87 = ptrtoint ptr %.val60 to i64
  %88 = and i64 %87, -2
  %89 = inttoptr i64 %88 to ptr
  %90 = getelementptr inbounds nuw i8, ptr %89, i64 24
  %91 = load i64, ptr %90, align 8
  %92 = getelementptr inbounds nuw i8, ptr %85, i64 24
  %93 = load i64, ptr %92, align 8
  %94 = shl i64 %87, 4
  %.mask66 = xor i64 %94, %91
  %95 = and i64 %.mask66, 16
  %96 = and i64 %93, -17
  %97 = or disjoint i64 %95, %96
  store i64 %97, ptr %92, align 8
  %indvars.iv.next89 = add nuw nsw i64 %indvars.iv88, 1
  %98 = load ptr, ptr %33, align 8, !tbaa !27
  %99 = getelementptr i8, ptr %98, i64 4
  %.val56 = load i32, ptr %99, align 4, !tbaa !37
  %100 = sext i32 %.val56 to i64
  %101 = icmp slt i64 %indvars.iv.next89, %100
  br i1 %101, label %.critedge2, label %.critedge4.preheader, !llvm.loop !102

102:                                              ; preds = %.lr.ph81, %.critedge4
  %.val5595 = phi i32 [ %.val56, %.lr.ph81 ], [ %.val55, %.critedge4 ]
  %indvars.iv91 = phi i64 [ 0, %.lr.ph81 ], [ %indvars.iv.next92, %.critedge4 ]
  %.080 = phi i32 [ -1, %.lr.ph81 ], [ %.2, %.critedge4 ]
  %103 = getelementptr inbounds nuw ptr, ptr %.val, i64 %indvars.iv91
  %104 = load ptr, ptr %103, align 8, !tbaa !31
  %105 = getelementptr inbounds nuw i8, ptr %104, i64 24
  %106 = load i64, ptr %105, align 8
  %107 = and i64 %106, 16
  %.not = icmp eq i64 %107, 0
  br i1 %.not, label %.critedge4, label %108

108:                                              ; preds = %102
  %109 = icmp eq i32 %.080, -1
  %110 = trunc nuw nsw i64 %indvars.iv91 to i32
  %spec.select = select i1 %109, i32 %110, i32 %.080
  %111 = load i32, ptr %2, align 4, !tbaa !23
  %112 = add nsw i32 %111, 1
  store i32 %112, ptr %2, align 4, !tbaa !23
  %.val55.pre = load i32, ptr %79, align 4, !tbaa !37
  br label %.critedge4

.critedge4:                                       ; preds = %102, %108
  %.val55 = phi i32 [ %.val55.pre, %108 ], [ %.val5595, %102 ]
  %.2 = phi i32 [ %spec.select, %108 ], [ %.080, %102 ]
  %indvars.iv.next92 = add nuw nsw i64 %indvars.iv91, 1
  %113 = sext i32 %.val55 to i64
  %114 = icmp slt i64 %indvars.iv.next92, %113
  br i1 %114, label %102, label %.critedge6, !llvm.loop !103

.critedge6:                                       ; preds = %.critedge4, %.critedge2.preheader, %.critedge4.preheader
  %.0.lcssa = phi i32 [ -1, %.critedge4.preheader ], [ -1, %.critedge2.preheader ], [ %.2, %.critedge4 ]
  tail call void @Aig_ManCleanMarkA(ptr noundef %0) #18
  ret i32 %.0.lcssa
}